target datalayout = "e-m:e-p270:32:32-p271:32:32-p272:64:64-i64:64-i128:128-f80:128-n8:16:32:64-S128"
target triple = "x86_64-pc-linux-gnu"

%"class.absl::lts_20240722::Status" = type { i64 }
%"class.std::__cxx11::basic_string" = type { %"struct.std::__cxx11::basic_string<char>::_Alloc_hider", i64, %union.anon }
%"struct.std::__cxx11::basic_string<char>::_Alloc_hider" = type { ptr }
%union.anon = type { i64, [8 x i8] }
%"class.absl::lts_20240722::status_internal::StatusRep" = type { %"struct.std::atomic.132", i32, %"class.std::__cxx11::basic_string", %"class.std::unique_ptr.134" }
%"struct.std::atomic.132" = type { %"struct.std::__atomic_base.133" }
%"struct.std::__atomic_base.133" = type { i32 }
%"class.std::unique_ptr.134" = type { %"struct.std::__uniq_ptr_data.135" }
%"struct.std::__uniq_ptr_data.135" = type { %"class.std::__uniq_ptr_impl.136" }
%"class.std::__uniq_ptr_impl.136" = type { %"class.std::tuple.137" }
%"class.std::tuple.137" = type { %"struct.std::_Tuple_impl.138" }
%"struct.std::_Tuple_impl.138" = type { %"struct.std::_Head_base.141" }
%"struct.std::_Head_base.141" = type { ptr }
%struct.metadata_server_detector = type { %struct.grpc_polling_entity, i32, i32, %struct.grpc_http_response }
%struct.grpc_polling_entity = type <{ %union.anon.123, i32, [4 x i8] }>
%union.anon.123 = type { ptr }
%struct.grpc_http_response = type { i32, i64, ptr, i64, i32, i64, ptr }
%struct.grpc_http_header = type { ptr, ptr }

@.str.3 = private unnamed_addr constant [166 x i8] c"generated/home/dtcxzyw/WorkSpace/Projects/compilers/llvm-opt-benchmark/bench/grpc/grpc/src/core/lib/security/credentials/google_default/google_default_credentials.cc\00", align 1
@_ZL12g_polling_mu = internal global ptr null, align 8
@.str.34 = private unnamed_addr constant [16 x i8] c"Metadata-Flavor\00", align 1
@.str.35 = private unnamed_addr constant [7 x i8] c"Google\00", align 1
@.str.36 = private unnamed_addr constant [13 x i8] c"Pollset kick\00", align 1

; Function Attrs: alwaysinline mustprogress nounwind uwtable
define linkonce_odr noundef i32 @_ZNSt13__atomic_baseIiE9fetch_addEiSt12memory_order(ptr noundef nonnull align 4 dereferenceable(4) %0, i32 noundef %1, i32 noundef %2) #21 comdat align 2 {
  %4 = alloca ptr, align 8
  %5 = alloca i32, align 4
  %6 = alloca i32, align 4
  %7 = alloca i32, align 4
  %8 = alloca i32, align 4
  store ptr %0, ptr %4, align 8, !tbaa !404
  store i32 %1, ptr %5, align 4, !tbaa !100
  store i32 %2, ptr %6, align 4, !tbaa !214
  %9 = load ptr, ptr %4, align 8
  %10 = getelementptr inbounds nuw %"struct.std::__atomic_base.133", ptr %9, i32 0, i32 0
  %11 = load i32, ptr %6, align 4, !tbaa !214
  %12 = load i32, ptr %5, align 4, !tbaa !100
  store i32 %12, ptr %7, align 4, !tbaa !100
  switch i32 %11, label %13 [
    i32 1, label %16
    i32 2, label %16
    i32 3, label %19
    i32 4, label %22
    i32 5, label %25
  ]

13:                                               ; preds = %3
  %14 = load i32, ptr %7, align 4
  %15 = atomicrmw add ptr %10, i32 %14 monotonic, align 4
  store i32 %15, ptr %8, align 4
  br label %28

16:                                               ; preds = %3, %3
  %17 = load i32, ptr %7, align 4
  %18 = atomicrmw add ptr %10, i32 %17 acquire, align 4
  store i32 %18, ptr %8, align 4
  br label %28

19:                                               ; preds = %3
  %20 = load i32, ptr %7, align 4
  %21 = atomicrmw add ptr %10, i32 %20 release, align 4
  store i32 %21, ptr %8, align 4
  br label %28

22:                                               ; preds = %3
  %23 = load i32, ptr %7, align 4
  %24 = atomicrmw add ptr %10, i32 %23 acq_rel, align 4
  store i32 %24, ptr %8, align 4
  br label %28

25:                                               ; preds = %3
  %26 = load i32, ptr %7, align 4
  %27 = atomicrmw add ptr %10, i32 %26 seq_cst, align 4
  store i32 %27, ptr %8, align 4
  br label %28

28:                                               ; preds = %25, %22, %19, %16, %13
  %29 = load i32, ptr %8, align 4, !tbaa !100
  ret i32 %29
}

; Function Attrs: mustprogress nounwind uwtable
define linkonce_odr void @_ZNK4absl12lts_2024072215status_internal9StatusRep3RefEv(ptr noundef nonnull align 8 dereferenceable(48) %0) #6 comdat align 2 {
  %2 = alloca ptr, align 8
  store ptr %0, ptr %2, align 8, !tbaa !402
  %3 = load ptr, ptr %2, align 8
  %4 = getelementptr inbounds nuw %"class.absl::lts_20240722::status_internal::StatusRep", ptr %3, i32 0, i32 0
  %5 = call noundef i32 @_ZNSt13__atomic_baseIiE9fetch_addEiSt12memory_order(ptr noundef nonnull align 4 dereferenceable(4) %4, i32 noundef 1, i32 noundef 0) #3
  ret void
}

; Function Attrs: inlinehint mustprogress nounwind uwtable
define linkonce_odr noundef ptr @_ZN4absl12lts_202407226Status12RepToPointerEm(i64 noundef %0) #12 comdat align 2 {
  %2 = alloca i64, align 8
  store i64 %0, ptr %2, align 8, !tbaa !31
  %3 = load i64, ptr %2, align 8, !tbaa !31
  %4 = inttoptr i64 %3 to ptr
  ret ptr %4
}

; Function Attrs: mustprogress nounwind uwtable
define linkonce_odr noundef zeroext i1 @_ZN4absl12lts_202407226Status9IsInlinedEm(i64 noundef %0) #6 comdat align 2 {
  %2 = alloca i64, align 8
  store i64 %0, ptr %2, align 8, !tbaa !31
  %3 = load i64, ptr %2, align 8, !tbaa !31
  %4 = and i64 %3, 1
  %5 = icmp ne i64 %4, 0
  ret i1 %5
}

; Function Attrs: inlinehint mustprogress uwtable
define linkonce_odr void @_ZN4absl12lts_202407226Status3RefEm(i64 noundef %0) #9 comdat align 2 {
  %2 = alloca i64, align 8
  store i64 %0, ptr %2, align 8, !tbaa !31
  %3 = load i64, ptr %2, align 8, !tbaa !31
  %4 = call noundef zeroext i1 @_ZN4absl12lts_202407226Status9IsInlinedEm(i64 noundef %3)
  br i1 %4, label %8, label %5

5:                                                ; preds = %1
  %6 = load i64, ptr %2, align 8, !tbaa !31
  %7 = call noundef ptr @_ZN4absl12lts_202407226Status12RepToPointerEm(i64 noundef %6)
  call void @_ZNK4absl12lts_2024072215status_internal9StatusRep3RefEv(ptr noundef nonnull align 8 dereferenceable(48) %7)
  br label %8

8:                                                ; preds = %5, %1
  ret void
}

; Function Attrs: mustprogress nounwind uwtable
define linkonce_odr void @_ZN4absl12lts_202407226StatusC2Em(ptr noundef nonnull align 8 dereferenceable(8) %0, i64 noundef %1) unnamed_addr #6 comdat align 2 {
  %3 = alloca ptr, align 8
  %4 = alloca i64, align 8
  store ptr %0, ptr %3, align 8, !tbaa !62
  store i64 %1, ptr %4, align 8, !tbaa !31
  %5 = load ptr, ptr %3, align 8
  %6 = getelementptr inbounds nuw %"class.absl::lts_20240722::Status", ptr %5, i32 0, i32 0
  %7 = load i64, ptr %4, align 8, !tbaa !31
  store i64 %7, ptr %6, align 8, !tbaa !95
  ret void
}

; Function Attrs: inlinehint mustprogress uwtable
define linkonce_odr void @_ZN4absl12lts_202407226StatusC2ERKS1_(ptr noundef nonnull align 8 dereferenceable(8) %0, ptr noundef nonnull align 8 dereferenceable(8) %1) unnamed_addr #9 comdat align 2 personality ptr @__gxx_personality_v0 {
  %3 = alloca ptr, align 8
  %4 = alloca ptr, align 8
  %5 = alloca ptr, align 8
  %6 = alloca i32, align 4
  store ptr %0, ptr %3, align 8, !tbaa !62
  store ptr %1, ptr %4, align 8, !tbaa !62
  %7 = load ptr, ptr %3, align 8
  %8 = load ptr, ptr %4, align 8, !tbaa !62
  %9 = getelementptr inbounds nuw %"class.absl::lts_20240722::Status", ptr %8, i32 0, i32 0
  %10 = load i64, ptr %9, align 8, !tbaa !95
  call void @_ZN4absl12lts_202407226StatusC2Em(ptr noundef nonnull align 8 dereferenceable(8) %7, i64 noundef %10)
  %11 = getelementptr inbounds nuw %"class.absl::lts_20240722::Status", ptr %7, i32 0, i32 0
  %12 = load i64, ptr %11, align 8, !tbaa !95
  invoke void @_ZN4absl12lts_202407226Status3RefEm(i64 noundef %12)
          to label %13 unwind label %14

13:                                               ; preds = %2
  ret void

14:                                               ; preds = %2
  %15 = landingpad { ptr, i32 }
          cleanup
  %16 = extractvalue { ptr, i32 } %15, 0
  store ptr %16, ptr %5, align 8
  %17 = extractvalue { ptr, i32 } %15, 1
  store i32 %17, ptr %6, align 4
  call void @_ZN4absl12lts_202407226StatusD2Ev(ptr noundef nonnull align 8 dereferenceable(8) %7) #3
  br label %18

18:                                               ; preds = %14
  %19 = load ptr, ptr %5, align 8
  %20 = load i32, ptr %6, align 4
  %21 = insertvalue { ptr, i32 } poison, ptr %19, 0
  %22 = insertvalue { ptr, i32 } %21, i32 %20, 1
  resume { ptr, i32 } %22
}

; Function Attrs: mustprogress nounwind uwtable
define linkonce_odr noundef i64 @_ZN4absl12lts_202407226Status16CodeToInlinedRepENS0_10StatusCodeE(i32 noundef %0) #6 comdat align 2 {
  %2 = alloca i32, align 4
  store i32 %0, ptr %2, align 4, !tbaa !132
  %3 = load i32, ptr %2, align 4, !tbaa !132
  %4 = sext i32 %3 to i64
  %5 = shl i64 %4, 2
  %6 = add i64 %5, 1
  ret i64 %6
}

; Function Attrs: inlinehint mustprogress uwtable
define linkonce_odr noundef zeroext i1 @_Z17grpc_log_if_errorPKcN4absl12lts_202407226StatusES0_i(ptr noundef %0, ptr noundef %1, ptr noundef %2, i32 noundef %3) #9 comdat personality ptr @__gxx_personality_v0 {
  %5 = alloca i1, align 1
  %6 = alloca ptr, align 8
  %7 = alloca ptr, align 8
  %8 = alloca ptr, align 8
  %9 = alloca i32, align 4
  %10 = alloca %"class.absl::lts_20240722::Status", align 8
  %11 = alloca i1, align 1
  %12 = alloca ptr, align 8
  %13 = alloca i32, align 4
  store ptr %0, ptr %6, align 8, !tbaa !10
  store ptr %1, ptr %7, align 8, !tbaa !62
  store ptr %2, ptr %8, align 8, !tbaa !10
  store i32 %3, ptr %9, align 4, !tbaa !100
  %14 = call noundef zeroext i1 @_ZNK4absl12lts_202407226Status2okEv(ptr noundef nonnull align 8 dereferenceable(8) %1)
  store i1 false, ptr %11, align 1
  br i1 %14, label %15, label %16

15:                                               ; preds = %4
  br label %22

16:                                               ; preds = %4
  %17 = load ptr, ptr %6, align 8, !tbaa !10
  call void @_ZN4absl12lts_202407226StatusC2ERKS1_(ptr noundef nonnull align 8 dereferenceable(8) %10, ptr noundef nonnull align 8 dereferenceable(8) %1)
  store i1 true, ptr %11, align 1
  %18 = load ptr, ptr %8, align 8, !tbaa !10
  %19 = load i32, ptr %9, align 4, !tbaa !100
  %20 = invoke noundef zeroext i1 @_Z14grpc_log_errorPKcN4absl12lts_202407226StatusES0_i(ptr noundef %17, ptr noundef %10, ptr noundef %18, i32 noundef %19)
          to label %21 unwind label %28

21:                                               ; preds = %16
  br label %22

22:                                               ; preds = %21, %15
  %23 = phi i1 [ true, %15 ], [ %20, %21 ]
  store i1 %23, ptr %5, align 1
  %24 = load i1, ptr %11, align 1
  br i1 %24, label %25, label %26

25:                                               ; preds = %22
  call void @_ZN4absl12lts_202407226StatusD2Ev(ptr noundef nonnull align 8 dereferenceable(8) %10) #3
  br label %26

26:                                               ; preds = %25, %22
  %27 = load i1, ptr %5, align 1
  ret i1 %27

28:                                               ; preds = %16
  %29 = landingpad { ptr, i32 }
          cleanup
  %30 = extractvalue { ptr, i32 } %29, 0
  store ptr %30, ptr %12, align 8
  %31 = extractvalue { ptr, i32 } %29, 1
  store i32 %31, ptr %13, align 4
  %32 = load i1, ptr %11, align 1
  br i1 %32, label %33, label %34

33:                                               ; preds = %28
  call void @_ZN4absl12lts_202407226StatusD2Ev(ptr noundef nonnull align 8 dereferenceable(8) %10) #3
  br label %34

34:                                               ; preds = %33, %28
  br label %35

35:                                               ; preds = %34
  %36 = load ptr, ptr %12, align 8
  %37 = load i32, ptr %13, align 4
  %38 = insertvalue { ptr, i32 } poison, ptr %36, 0
  %39 = insertvalue { ptr, i32 } %38, i32 %37, 1
  resume { ptr, i32 } %39
}

; Function Attrs: inlinehint mustprogress uwtable
define linkonce_odr noundef zeroext i1 @_ZNK4absl12lts_202407226Status2okEv(ptr noundef nonnull align 8 dereferenceable(8) %0) #9 comdat align 2 {
  %2 = alloca ptr, align 8
  store ptr %0, ptr %2, align 8, !tbaa !62
  %3 = load ptr, ptr %2, align 8
  %4 = getelementptr inbounds nuw %"class.absl::lts_20240722::Status", ptr %3, i32 0, i32 0
  %5 = load i64, ptr %4, align 8, !tbaa !95
  %6 = call noundef i64 @_ZN4absl12lts_202407226Status16CodeToInlinedRepENS0_10StatusCodeE(i32 noundef 0)
  %7 = icmp eq i64 %5, %6
  ret i1 %7
}

; Function Attrs: mustprogress uwtable
define internal void @_ZL42on_metadata_server_detection_http_responsePvN4absl12lts_202407226StatusE(ptr noundef %0, ptr noundef %1) #4 personality ptr @__gxx_personality_v0 {
  %3 = alloca ptr, align 8
  %4 = alloca ptr, align 8
  %5 = alloca ptr, align 8
  %6 = alloca i64, align 8
  %7 = alloca ptr, align 8
  %8 = alloca i32, align 4
  %9 = alloca %"class.absl::lts_20240722::Status", align 8
  %10 = alloca ptr, align 8
  %11 = alloca i32, align 4
  store ptr %0, ptr %3, align 8, !tbaa !97
  store ptr %1, ptr %4, align 8, !tbaa !62
  call void @llvm.lifetime.start.p0(i64 8, ptr %5) #3
  %12 = load ptr, ptr %3, align 8, !tbaa !97
  store ptr %12, ptr %5, align 8, !tbaa !424
  %13 = call noundef zeroext i1 @_ZNK4absl12lts_202407226Status2okEv(ptr noundef nonnull align 8 dereferenceable(8) %1)
  br i1 %13, label %14, label %63

14:                                               ; preds = %2
  %15 = load ptr, ptr %5, align 8, !tbaa !424
  %16 = getelementptr inbounds nuw %struct.metadata_server_detector, ptr %15, i32 0, i32 3
  %17 = getelementptr inbounds nuw %struct.grpc_http_response, ptr %16, i32 0, i32 0
  %18 = load i32, ptr %17, align 8, !tbaa !432
  %19 = icmp eq i32 %18, 200
  br i1 %19, label %20, label %63

20:                                               ; preds = %14
  %21 = load ptr, ptr %5, align 8, !tbaa !424
  %22 = getelementptr inbounds nuw %struct.metadata_server_detector, ptr %21, i32 0, i32 3
  %23 = getelementptr inbounds nuw %struct.grpc_http_response, ptr %22, i32 0, i32 1
  %24 = load i64, ptr %23, align 8, !tbaa !433
  %25 = icmp ugt i64 %24, 0
  br i1 %25, label %26, label %63

26:                                               ; preds = %20
  call void @llvm.lifetime.start.p0(i64 8, ptr %6) #3
  store i64 0, ptr %6, align 8, !tbaa !31
  br label %27

27:                                               ; preds = %59, %26
  %28 = load i64, ptr %6, align 8, !tbaa !31
  %29 = load ptr, ptr %5, align 8, !tbaa !424
  %30 = getelementptr inbounds nuw %struct.metadata_server_detector, ptr %29, i32 0, i32 3
  %31 = getelementptr inbounds nuw %struct.grpc_http_response, ptr %30, i32 0, i32 1
  %32 = load i64, ptr %31, align 8, !tbaa !433
  %33 = icmp ult i64 %28, %32
  br i1 %33, label %34, label %62

34:                                               ; preds = %27
  call void @llvm.lifetime.start.p0(i64 8, ptr %7) #3
  %35 = load ptr, ptr %5, align 8, !tbaa !424
  %36 = getelementptr inbounds nuw %struct.metadata_server_detector, ptr %35, i32 0, i32 3
  %37 = getelementptr inbounds nuw %struct.grpc_http_response, ptr %36, i32 0, i32 2
  %38 = load ptr, ptr %37, align 8, !tbaa !434
  %39 = load i64, ptr %6, align 8, !tbaa !31
  %40 = getelementptr inbounds nuw %struct.grpc_http_header, ptr %38, i64 %39
  store ptr %40, ptr %7, align 8, !tbaa !435
  %41 = load ptr, ptr %7, align 8, !tbaa !435
  %42 = getelementptr inbounds nuw %struct.grpc_http_header, ptr %41, i32 0, i32 0
  %43 = load ptr, ptr %42, align 8, !tbaa !436
  %44 = call i32 @strcmp(ptr noundef %43, ptr noundef @.str.34) #32
  %45 = icmp eq i32 %44, 0
  br i1 %45, label %46, label %55

46:                                               ; preds = %34
  %47 = load ptr, ptr %7, align 8, !tbaa !435
  %48 = getelementptr inbounds nuw %struct.grpc_http_header, ptr %47, i32 0, i32 1
  %49 = load ptr, ptr %48, align 8, !tbaa !438
  %50 = call i32 @strcmp(ptr noundef %49, ptr noundef @.str.35) #32
  %51 = icmp eq i32 %50, 0
  br i1 %51, label %52, label %55

52:                                               ; preds = %46
  %53 = load ptr, ptr %5, align 8, !tbaa !424
  %54 = getelementptr inbounds nuw %struct.metadata_server_detector, ptr %53, i32 0, i32 2
  store i32 1, ptr %54, align 4, !tbaa !417
  store i32 2, ptr %8, align 4
  br label %56

55:                                               ; preds = %46, %34
  store i32 0, ptr %8, align 4
  br label %56

56:                                               ; preds = %55, %52
  call void @llvm.lifetime.end.p0(i64 8, ptr %7) #3
  %57 = load i32, ptr %8, align 4
  switch i32 %57, label %82 [
    i32 0, label %58
    i32 2, label %62
  ]

58:                                               ; preds = %56
  br label %59

59:                                               ; preds = %58
  %60 = load i64, ptr %6, align 8, !tbaa !31
  %61 = add i64 %60, 1
  store i64 %61, ptr %6, align 8, !tbaa !31
  br label %27, !llvm.loop !439

62:                                               ; preds = %56, %27
  call void @llvm.lifetime.end.p0(i64 8, ptr %6) #3
  br label %63

63:                                               ; preds = %62, %20, %14, %2
  %64 = load ptr, ptr @_ZL12g_polling_mu, align 8, !tbaa !419
  call void @gpr_mu_lock(ptr noundef %64)
  %65 = load ptr, ptr %5, align 8, !tbaa !424
  %66 = getelementptr inbounds nuw %struct.metadata_server_detector, ptr %65, i32 0, i32 1
  store i32 1, ptr %66, align 8, !tbaa !411
  %67 = load ptr, ptr %5, align 8, !tbaa !424
  %68 = getelementptr inbounds nuw %struct.metadata_server_detector, ptr %67, i32 0, i32 0
  %69 = call noundef ptr @_Z27grpc_polling_entity_pollsetP19grpc_polling_entity(ptr noundef %68)
  call void @_Z17grpc_pollset_kickP12grpc_pollsetP19grpc_pollset_worker(ptr dead_on_unwind writable sret(%"class.absl::lts_20240722::Status") align 8 %9, ptr noundef %69, ptr noundef null)
  %70 = invoke noundef zeroext i1 @_Z17grpc_log_if_errorPKcN4absl12lts_202407226StatusES0_i(ptr noundef @.str.36, ptr noundef %9, ptr noundef @.str.3, i32 noundef 191)
          to label %71 unwind label %73

71:                                               ; preds = %63
  call void @_ZN4absl12lts_202407226StatusD2Ev(ptr noundef nonnull align 8 dereferenceable(8) %9) #3
  %72 = load ptr, ptr @_ZL12g_polling_mu, align 8, !tbaa !419
  call void @gpr_mu_unlock(ptr noundef %72)
  call void @llvm.lifetime.end.p0(i64 8, ptr %5) #3
  ret void

73:                                               ; preds = %63
  %74 = landingpad { ptr, i32 }
          cleanup
  %75 = extractvalue { ptr, i32 } %74, 0
  store ptr %75, ptr %10, align 8
  %76 = extractvalue { ptr, i32 } %74, 1
  store i32 %76, ptr %11, align 4
  call void @_ZN4absl12lts_202407226StatusD2Ev(ptr noundef nonnull align 8 dereferenceable(8) %9) #3
  call void @llvm.lifetime.end.p0(i64 8, ptr %5) #3
  br label %77

77:                                               ; preds = %73
  %78 = load ptr, ptr %10, align 8
  %79 = load i32, ptr %11, align 4
  %80 = insertvalue { ptr, i32 } poison, ptr %78, 0
  %81 = insertvalue { ptr, i32 } %80, i32 %79, 1
  resume { ptr, i32 } %81

82:                                               ; preds = %56
  unreachable
}