; Function Attrs: mustprogress uwtable
define internal void @_ZL42on_metadata_server_detection_http_responsePvN4absl12lts_202407226StatusE(ptr noundef %0, ptr noundef readonly captures(none) %1) #3 personality ptr @__gxx_personality_v0 {
  %3 = alloca %"class.absl::lts_20240722::Status", align 8
  %4 = alloca %"class.absl::lts_20240722::Status", align 8
  %5 = load i64, ptr %1, align 8, !tbaa !3
  %6 = icmp eq i64 %5, 1
  br i1 %6, label %7, label %.loopexit

7:                                                ; preds = %2
  %8 = getelementptr inbounds nuw i8, ptr %0, i64 24
  %9 = load i32, ptr %8, align 8, !tbaa !187
  %10 = icmp eq i32 %9, 200
  br i1 %10, label %11, label %.loopexit

11:                                               ; preds = %7
  %12 = getelementptr inbounds nuw i8, ptr %0, i64 32
  %13 = load i64, ptr %12, align 8, !tbaa !188
  %.not = icmp eq i64 %13, 0
  br i1 %.not, label %.loopexit, label %.preheader

.preheader:                                       ; preds = %11
  %14 = getelementptr inbounds nuw i8, ptr %0, i64 40
  %15 = load ptr, ptr %14, align 8, !tbaa !189
  br label %16

16:                                               ; preds = %.preheader, %28
  %.018 = phi i64 [ 0, %.preheader ], [ %29, %28 ]
  %17 = getelementptr inbounds nuw %struct.grpc_http_header, ptr %15, i64 %.018
  %18 = load ptr, ptr %17, align 8, !tbaa !190
  %19 = tail call i32 @strcmp(ptr noundef nonnull dereferenceable(1) %18, ptr noundef nonnull dereferenceable(16) @.str.34) #41
  %20 = icmp eq i32 %19, 0
  br i1 %20, label %21, label %28

21:                                               ; preds = %16
  %22 = getelementptr inbounds nuw i8, ptr %17, i64 8
  %23 = load ptr, ptr %22, align 8, !tbaa !192
  %24 = tail call i32 @strcmp(ptr noundef nonnull dereferenceable(1) %23, ptr noundef nonnull dereferenceable(7) @.str.35) #41
  %25 = icmp eq i32 %24, 0
  br i1 %25, label %26, label %28

26:                                               ; preds = %21
  %27 = getelementptr inbounds nuw i8, ptr %0, i64 20
  store i32 1, ptr %27, align 4, !tbaa !83
  br label %.loopexit

28:                                               ; preds = %21, %16
  %29 = add nuw i64 %.018, 1
  %exitcond.not = icmp eq i64 %29, %13
  br i1 %exitcond.not, label %.loopexit, label %16, !llvm.loop !193

.loopexit:                                        ; preds = %28, %26, %11, %7, %2
  %30 = load ptr, ptr @_ZL12g_polling_mu, align 8, !tbaa !109
  tail call void @gpr_mu_lock(ptr noundef %30)
  %31 = getelementptr inbounds nuw i8, ptr %0, i64 16
  store i32 1, ptr %31, align 8, !tbaa !80
  %32 = tail call noundef ptr @_Z27grpc_polling_entity_pollsetP19grpc_polling_entity(ptr noundef %0)
  call void @_Z17grpc_pollset_kickP12grpc_pollsetP19grpc_pollset_worker(ptr dead_on_unwind nonnull writable sret(%"class.absl::lts_20240722::Status") align 8 %4, ptr noundef %32, ptr noundef null)
  call void @llvm.lifetime.start.p0(i64 8, ptr nonnull %3)
  %33 = load i64, ptr %4, align 8, !tbaa !3
  %34 = icmp eq i64 %33, 1
  br i1 %34, label %50, label %35

35:                                               ; preds = %.loopexit
  store i64 %33, ptr %3, align 8, !tbaa !3
  %36 = and i64 %33, 1
  %.not.i.i.i = icmp eq i64 %36, 0
  br i1 %.not.i.i.i, label %37, label %_ZN4absl12lts_202407226StatusC2ERKS1_.exit.i

37:                                               ; preds = %35
  %38 = inttoptr i64 %33 to ptr
  %39 = atomicrmw add ptr %38, i32 1 monotonic, align 4
  br label %_ZN4absl12lts_202407226StatusC2ERKS1_.exit.i

_ZN4absl12lts_202407226StatusC2ERKS1_.exit.i:     ; preds = %37, %35
  %40 = invoke noundef zeroext i1 @_Z14grpc_log_errorPKcN4absl12lts_202407226StatusES0_i(ptr noundef nonnull @.str.36, ptr noundef nonnull %3, ptr noundef nonnull @.str.3, i32 noundef 191)
          to label %41 unwind label %.body

41:                                               ; preds = %_ZN4absl12lts_202407226StatusC2ERKS1_.exit.i
  %42 = load i64, ptr %3, align 8, !tbaa !3
  %43 = and i64 %42, 1
  %.not.i.i7.i = icmp eq i64 %43, 0
  br i1 %.not.i.i7.i, label %44, label %50

44:                                               ; preds = %41
  %45 = inttoptr i64 %42 to ptr
  invoke void @_ZNK4absl12lts_2024072215status_internal9StatusRep5UnrefEv(ptr noundef nonnull align 8 dereferenceable(48) %45)
          to label %50 unwind label %46

46:                                               ; preds = %44
  %47 = landingpad { ptr, i32 }
          catch ptr null
  %48 = extractvalue { ptr, i32 } %47, 0
  call void @__clang_call_terminate(ptr %48) #36
  unreachable

.body:                                            ; preds = %_ZN4absl12lts_202407226StatusC2ERKS1_.exit.i
  %49 = landingpad { ptr, i32 }
          cleanup
  call void @_ZN4absl12lts_202407226StatusD2Ev(ptr noundef nonnull align 8 dereferenceable(8) %3) #34
  call void @_ZN4absl12lts_202407226StatusD2Ev(ptr noundef nonnull align 8 dereferenceable(8) %4) #34
  resume { ptr, i32 } %49

50:                                               ; preds = %44, %41, %.loopexit
  call void @llvm.lifetime.end.p0(i64 8, ptr nonnull %3)
  %51 = load i64, ptr %4, align 8, !tbaa !3
  %52 = and i64 %51, 1
  %.not.i.i = icmp eq i64 %52, 0
  br i1 %.not.i.i, label %53, label %_ZN4absl12lts_202407226StatusD2Ev.exit

53:                                               ; preds = %50
  %54 = inttoptr i64 %51 to ptr
  invoke void @_ZNK4absl12lts_2024072215status_internal9StatusRep5UnrefEv(ptr noundef nonnull align 8 dereferenceable(48) %54)
          to label %_ZN4absl12lts_202407226StatusD2Ev.exit unwind label %55

55:                                               ; preds = %53
  %56 = landingpad { ptr, i32 }
          catch ptr null
  %57 = extractvalue { ptr, i32 } %56, 0
  call void @__clang_call_terminate(ptr %57) #36
  unreachable

_ZN4absl12lts_202407226StatusD2Ev.exit:           ; preds = %50, %53
  %58 = load ptr, ptr @_ZL12g_polling_mu, align 8, !tbaa !109
  call void @gpr_mu_unlock(ptr noundef %58)
  ret void
}